; Function Attrs: mustprogress null_pointer_is_valid sspstrong uwtable
define void @_ZN19WiresharkMainWindow17goToCancelClickedEv(ptr noundef align 8 dereferenceable_or_null(560) %0) local_unnamed_addr #0 align 2 {
  %2 = alloca { i64, i64 }, align 8
  %3 = alloca { i64, i64 }, align 8
  %4 = getelementptr inbounds nuw i8, ptr %0, i64 360
  %5 = load ptr, ptr %4, align 8
  %6 = getelementptr inbounds nuw i8, ptr %5, i64 2048
  %7 = load ptr, ptr %6, align 8
  tail call void @_ZN14AccordionFrame12animatedHideEv(ptr noundef align 8 dereferenceable_or_null(56) %7)
  %8 = getelementptr inbounds nuw i8, ptr %0, i64 392
  %9 = load ptr, ptr %8, align 8
  %.not = icmp eq ptr %9, null
  br i1 %.not, label %13, label %10

10:                                               ; preds = %1
  call void @llvm.lifetime.start.p0(i64 16, ptr nonnull %2)
  call void @llvm.lifetime.start.p0(i64 16, ptr nonnull %3)
  store i64 ptrtoint (ptr @_ZN7QObject9destroyedEPS_ to i64), ptr %2, align 8
  %.fca.1.gep4.i = getelementptr inbounds nuw i8, ptr %2, i64 8
  store i64 0, ptr %.fca.1.gep4.i, align 8
  store i64 ptrtoint (ptr @_ZN19WiresharkMainWindow18resetPreviousFocusEv to i64), ptr %3, align 8
  %.fca.1.gep.i = getelementptr inbounds nuw i8, ptr %3, i64 8
  store i64 0, ptr %.fca.1.gep.i, align 8
  %11 = call noundef zeroext i1 @_ZN7QObject14disconnectImplEPKS_PPvS1_S3_PK11QMetaObject(ptr noundef nonnull %9, ptr noundef nonnull %2, ptr noundef %0, ptr noundef nonnull %3, ptr noundef nonnull @_ZN7QObject16staticMetaObjectE)
  call void @llvm.lifetime.end.p0(i64 16, ptr nonnull %2)
  call void @llvm.lifetime.end.p0(i64 16, ptr nonnull %3)
  %12 = load ptr, ptr %8, align 8
  call void @_ZN7QWidget8setFocusEN2Qt11FocusReasonE(ptr noundef align 8 dereferenceable_or_null(40) %12, i32 noundef 7)
  store ptr null, ptr %8, align 8
  br label %13

13:                                               ; preds = %10, %1
  ret void
}